target datalayout = "e-m:e-p270:32:32-p271:32:32-p272:64:64-i64:64-i128:128-f80:128-n8:16:32:64-S128"
target triple = "x86_64-pc-linux-gnu"

%struct.expert_field = type { i32, i32 }
%struct.tds_conv_info_t = type { ptr, i32, i32, i32, i32, i32, i32, i32, i32, i8 }

@hf_tds_capability_length = internal global i32 0, align 4
@hf_tds_capability_captype = internal global i32 0, align 4
@hf_tds_capability_caplen = internal global i32 0, align 4
@ett_tds_capability_req = internal global i32 0, align 4
@ett_tds_capability_resp = internal global i32 0, align 4
@ei_tds_token_length_invalid = internal global %struct.expert_field zeroinitializer, align 4
@.str.1356 = private unnamed_addr constant [22 x i8] c" Capability length %d\00", align 1
@hf_req_array = internal global [11 x ptr] [ptr @hf_req_0, ptr @hf_req_1, ptr @hf_req_2, ptr @hf_req_3, ptr @hf_req_4, ptr @hf_req_5, ptr @hf_req_6, ptr @hf_req_7, ptr @hf_req_8, ptr @hf_req_9, ptr @hf_req_10], align 16
@.str.1357 = private unnamed_addr constant [17 x i8] c"Req caps %d-%d: \00", align 1
@hf_resp_array = internal global [9 x ptr] [ptr @hf_resp_0, ptr @hf_resp_1, ptr @hf_resp_2, ptr @hf_resp_3, ptr @hf_resp_4, ptr @hf_resp_5, ptr @hf_resp_6, ptr @hf_resp_7, ptr @hf_resp_8], align 16
@.str.1358 = private unnamed_addr constant [18 x i8] c"Resp caps %d-%d: \00", align 1

; Function Attrs: nounwind null_pointer_is_valid sspstrong uwtable
define internal i32 @tds_get_int2_encoding(ptr noundef %0) #5 {
  %2 = alloca ptr, align 8
  store ptr %0, ptr %2, align 8
  %3 = load ptr, ptr %2, align 8
  %4 = getelementptr inbounds nuw %struct.tds_conv_info_t, ptr %3, i32 0, i32 4
  %5 = load i32, ptr %4, align 4
  %6 = icmp eq i32 %5, 2
  %7 = select i1 %6, i32 0, i32 -2147483648
  ret i32 %7
}

; Function Attrs: null_pointer_is_valid sspstrong uwtable
define internal i32 @dissect_tds5_capability_token(ptr noundef %0, ptr noundef %1, i32 noundef %2, ptr noundef %3, ptr noundef %4) #0 {
  %6 = alloca ptr, align 8
  %7 = alloca ptr, align 8
  %8 = alloca i32, align 4
  %9 = alloca ptr, align 8
  %10 = alloca ptr, align 8
  %11 = alloca i32, align 4
  %12 = alloca i32, align 4
  %13 = alloca i32, align 4
  %14 = alloca i32, align 4
  %15 = alloca i32, align 4
  %16 = alloca ptr, align 8
  %17 = alloca ptr, align 8
  %18 = alloca [240 x i8], align 16
  %19 = alloca i32, align 4
  store ptr %0, ptr %6, align 8
  store ptr %1, ptr %7, align 8
  store i32 %2, ptr %8, align 4
  store ptr %3, ptr %9, align 8
  store ptr %4, ptr %10, align 8
  call void @llvm.lifetime.start.p0(i64 4, ptr %11) #11
  call void @llvm.lifetime.start.p0(i64 4, ptr %12) #11
  %20 = load ptr, ptr %9, align 8
  %21 = load i32, ptr @hf_tds_capability_length, align 4
  %22 = load ptr, ptr %6, align 8
  %23 = load i32, ptr %8, align 4
  %24 = load ptr, ptr %10, align 8
  %25 = call i32 @tds_get_int2_encoding(ptr noundef %24)
  %26 = call ptr @proto_tree_add_item_ret_uint(ptr noundef %20, i32 noundef %21, ptr noundef %22, i32 noundef %23, i32 noundef 2, i32 noundef %25, ptr noundef %11)
  store i32 2, ptr %12, align 4
  br label %27

27:                                               ; preds = %130, %5
  %28 = load i32, ptr %12, align 4
  %29 = load i32, ptr %11, align 4
  %30 = icmp ult i32 %28, %29
  br i1 %30, label %31, label %134

31:                                               ; preds = %27
  call void @llvm.lifetime.start.p0(i64 4, ptr %13) #11
  call void @llvm.lifetime.start.p0(i64 4, ptr %14) #11
  call void @llvm.lifetime.start.p0(i64 4, ptr %15) #11
  call void @llvm.lifetime.start.p0(i64 8, ptr %16) #11
  %32 = load ptr, ptr %9, align 8
  %33 = load i32, ptr @hf_tds_capability_captype, align 4
  %34 = load ptr, ptr %6, align 8
  %35 = load i32, ptr %8, align 4
  %36 = load i32, ptr %12, align 4
  %37 = add i32 %35, %36
  %38 = call ptr @proto_tree_add_item_ret_uint(ptr noundef %32, i32 noundef %33, ptr noundef %34, i32 noundef %37, i32 noundef 1, i32 noundef 0, ptr noundef %13)
  %39 = load ptr, ptr %9, align 8
  %40 = load i32, ptr @hf_tds_capability_caplen, align 4
  %41 = load ptr, ptr %6, align 8
  %42 = load i32, ptr %8, align 4
  %43 = load i32, ptr %12, align 4
  %44 = add i32 %42, %43
  %45 = add i32 %44, 1
  %46 = call ptr @proto_tree_add_item_ret_uint(ptr noundef %39, i32 noundef %40, ptr noundef %41, i32 noundef %45, i32 noundef 1, i32 noundef 0, ptr noundef %14)
  store ptr %46, ptr %16, align 8
  %47 = load i32, ptr %12, align 4
  %48 = add i32 %47, 2
  store i32 %48, ptr %12, align 4
  %49 = load i32, ptr %14, align 4
  %50 = load i32, ptr %12, align 4
  %51 = load i32, ptr %11, align 4
  %52 = sub i32 %50, %51
  %53 = icmp ugt i32 %49, %52
  br i1 %53, label %54, label %62

54:                                               ; preds = %31
  %55 = load ptr, ptr %7, align 8
  %56 = load ptr, ptr %16, align 8
  %57 = load i32, ptr %14, align 4
  %58 = call ptr (ptr, ptr, ptr, ptr, ...) @expert_add_info_format(ptr noundef %55, ptr noundef %56, ptr noundef @ei_tds_token_length_invalid, ptr noundef @.str.1356, i32 noundef %57)
  %59 = load i32, ptr %12, align 4
  %60 = load i32, ptr %11, align 4
  %61 = sub i32 %59, %60
  store i32 %61, ptr %14, align 4
  br label %62

62:                                               ; preds = %54, %31
  store i32 0, ptr %15, align 4
  br label %63

63:                                               ; preds = %127, %62
  %64 = load i32, ptr %15, align 4
  %65 = load i32, ptr %14, align 4
  %66 = icmp ult i32 %64, %65
  br i1 %66, label %67, label %130

67:                                               ; preds = %63
  call void @llvm.lifetime.start.p0(i64 8, ptr %17) #11
  store ptr null, ptr %17, align 8
  call void @llvm.lifetime.start.p0(i64 240, ptr %18) #11
  call void @llvm.lifetime.start.p0(i64 4, ptr %19) #11
  %68 = load i32, ptr %13, align 4
  switch i32 %68, label %107 [
    i32 1, label %69
    i32 2, label %88
  ]

69:                                               ; preds = %67
  %70 = load i32, ptr %15, align 4
  %71 = zext i32 %70 to i64
  %72 = icmp ult i64 %71, 11
  br i1 %72, label %73, label %87

73:                                               ; preds = %69
  %74 = load i32, ptr %15, align 4
  %75 = zext i32 %74 to i64
  %76 = getelementptr [11 x ptr], ptr @hf_req_array, i64 0, i64 %75
  %77 = load ptr, ptr %76, align 8
  store ptr %77, ptr %17, align 8
  %78 = getelementptr inbounds [240 x i8], ptr %18, i64 0, i64 0
  %79 = load i32, ptr %15, align 4
  %80 = mul i32 %79, 8
  %81 = load i32, ptr %15, align 4
  %82 = add i32 %81, 1
  %83 = mul i32 %82, 8
  %84 = sub i32 %83, 1
  %85 = call i32 (ptr, i64, i32, i64, ptr, ...) @__snprintf_chk(ptr noundef %78, i64 noundef 240, i32 noundef 2, i64 noundef 240, ptr noundef @.str.1357, i32 noundef %80, i32 noundef %84)
  %86 = load i32, ptr @ett_tds_capability_req, align 4
  store i32 %86, ptr %19, align 4
  br label %87

87:                                               ; preds = %73, %69
  br label %108

88:                                               ; preds = %67
  %89 = load i32, ptr %15, align 4
  %90 = zext i32 %89 to i64
  %91 = icmp ult i64 %90, 9
  br i1 %91, label %92, label %106

92:                                               ; preds = %88
  %93 = load i32, ptr %15, align 4
  %94 = zext i32 %93 to i64
  %95 = getelementptr [9 x ptr], ptr @hf_resp_array, i64 0, i64 %94
  %96 = load ptr, ptr %95, align 8
  store ptr %96, ptr %17, align 8
  %97 = getelementptr inbounds [240 x i8], ptr %18, i64 0, i64 0
  %98 = load i32, ptr %15, align 4
  %99 = mul i32 %98, 8
  %100 = load i32, ptr %15, align 4
  %101 = add i32 %100, 1
  %102 = mul i32 %101, 8
  %103 = sub i32 %102, 1
  %104 = call i32 (ptr, i64, i32, i64, ptr, ...) @__snprintf_chk(ptr noundef %97, i64 noundef 240, i32 noundef 2, i64 noundef 240, ptr noundef @.str.1358, i32 noundef %99, i32 noundef %103)
  %105 = load i32, ptr @ett_tds_capability_resp, align 4
  store i32 %105, ptr %19, align 4
  br label %106

106:                                              ; preds = %92, %88
  br label %108

107:                                              ; preds = %67
  br label %108

108:                                              ; preds = %107, %106, %87
  %109 = load ptr, ptr %17, align 8
  %110 = icmp ne ptr %109, null
  br i1 %110, label %111, label %126

111:                                              ; preds = %108
  %112 = load ptr, ptr %9, align 8
  %113 = load ptr, ptr %6, align 8
  %114 = load i32, ptr %8, align 4
  %115 = load i32, ptr %12, align 4
  %116 = add i32 %114, %115
  %117 = load i32, ptr %14, align 4
  %118 = load i32, ptr %15, align 4
  %119 = sub i32 %117, %118
  %120 = sub i32 %119, 1
  %121 = add i32 %116, %120
  %122 = getelementptr inbounds [240 x i8], ptr %18, i64 0, i64 0
  %123 = load i32, ptr %19, align 4
  %124 = load ptr, ptr %17, align 8
  %125 = call ptr @proto_tree_add_bitmask_text(ptr noundef %112, ptr noundef %113, i32 noundef %121, i32 noundef 1, ptr noundef %122, ptr noundef null, i32 noundef %123, ptr noundef %124, i32 noundef 0, i32 noundef 10)
  br label %126

126:                                              ; preds = %111, %108
  call void @llvm.lifetime.end.p0(i64 4, ptr %19) #11
  call void @llvm.lifetime.end.p0(i64 240, ptr %18) #11
  call void @llvm.lifetime.end.p0(i64 8, ptr %17) #11
  br label %127

127:                                              ; preds = %126
  %128 = load i32, ptr %15, align 4
  %129 = add i32 %128, 1
  store i32 %129, ptr %15, align 4
  br label %63, !llvm.loop !26

130:                                              ; preds = %63
  %131 = load i32, ptr %14, align 4
  %132 = load i32, ptr %12, align 4
  %133 = add i32 %132, %131
  store i32 %133, ptr %12, align 4
  call void @llvm.lifetime.end.p0(i64 8, ptr %16) #11
  call void @llvm.lifetime.end.p0(i64 4, ptr %15) #11
  call void @llvm.lifetime.end.p0(i64 4, ptr %14) #11
  call void @llvm.lifetime.end.p0(i64 4, ptr %13) #11
  br label %27, !llvm.loop !27

134:                                              ; preds = %27
  %135 = load i32, ptr %12, align 4
  call void @llvm.lifetime.end.p0(i64 4, ptr %12) #11
  call void @llvm.lifetime.end.p0(i64 4, ptr %11) #11
  ret i32 %135
}