; Function Attrs: null_pointer_is_valid sspstrong uwtable
define internal fastcc i32 @dissect_tds5_capability_token(ptr noundef nonnull %0, ptr noundef %1, i32 noundef %2, ptr noundef %3, i32 %.20.val) unnamed_addr #0 {
  %5 = alloca i32, align 4
  %6 = alloca i32, align 4
  %7 = alloca i32, align 4
  %8 = alloca [240 x i8], align 16
  call void @llvm.lifetime.start.p0(i64 4, ptr nonnull %5) #13
  %9 = load i32, ptr @hf_tds_capability_length, align 4
  %10 = icmp eq i32 %.20.val, 2
  %11 = select i1 %10, i32 0, i32 -2147483648
  %12 = call ptr @proto_tree_add_item_ret_uint(ptr noundef %3, i32 noundef %9, ptr noundef nonnull %0, i32 noundef %2, i32 noundef 2, i32 noundef %11, ptr noundef nonnull %5)
  %invariant.op = add i32 %2, 1
  %13 = load i32, ptr %5, align 4
  %14 = icmp ugt i32 %13, 2
  br i1 %14, label %.lr.ph8, label %._crit_edge9

.lr.ph8:                                          ; preds = %4, %._crit_edge
  %.0386 = phi i32 [ %58, %._crit_edge ], [ 2, %4 ]
  call void @llvm.lifetime.start.p0(i64 4, ptr nonnull %6) #13
  call void @llvm.lifetime.start.p0(i64 4, ptr nonnull %7) #13
  %15 = load i32, ptr @hf_tds_capability_captype, align 4
  %16 = add i32 %.0386, %2
  %17 = call ptr @proto_tree_add_item_ret_uint(ptr noundef %3, i32 noundef %15, ptr noundef nonnull %0, i32 noundef %16, i32 noundef 1, i32 noundef 0, ptr noundef nonnull %6)
  %18 = load i32, ptr @hf_tds_capability_caplen, align 4
  %.reass = add i32 %.0386, %invariant.op
  %19 = call ptr @proto_tree_add_item_ret_uint(ptr noundef %3, i32 noundef %18, ptr noundef nonnull %0, i32 noundef %.reass, i32 noundef 1, i32 noundef 0, ptr noundef nonnull %7)
  %20 = add i32 %.0386, 2
  %21 = load i32, ptr %7, align 4
  %22 = load i32, ptr %5, align 4
  %23 = sub i32 %20, %22
  %24 = icmp ugt i32 %21, %23
  br i1 %24, label %25, label %29

25:                                               ; preds = %.lr.ph8
  %26 = call ptr (ptr, ptr, ptr, ptr, ...) @expert_add_info_format(ptr noundef %1, ptr noundef %19, ptr noundef nonnull @ei_tds_token_length_invalid, ptr noundef nonnull @.str.1356, i32 noundef %21)
  %27 = load i32, ptr %5, align 4
  %28 = sub i32 %20, %27
  store i32 %28, ptr %7, align 4
  br label %29

29:                                               ; preds = %25, %.lr.ph8
  %30 = phi i32 [ %27, %25 ], [ %22, %.lr.ph8 ]
  %31 = phi i32 [ %28, %25 ], [ %21, %.lr.ph8 ]
  %.not11 = icmp eq i32 %31, 0
  br i1 %.not11, label %._crit_edge, label %.lr.ph

.lr.ph:                                           ; preds = %29
  %32 = add i32 %20, %2
  br label %33

33:                                               ; preds = %.lr.ph, %.thread
  %34 = phi i32 [ %31, %.lr.ph ], [ %54, %.thread ]
  %indvars.iv = phi i64 [ 0, %.lr.ph ], [ %indvars.iv.next, %.thread ]
  %indvars14 = trunc i64 %indvars.iv to i32
  call void @llvm.lifetime.start.p0(i64 240, ptr nonnull %8) #13
  %35 = load i32, ptr %6, align 4
  switch i32 %35, label %.thread [
    i32 1, label %36
    i32 2, label %40
  ]

36:                                               ; preds = %33
  %37 = icmp samesign ult i64 %indvars.iv, 11
  br i1 %37, label %38, label %.thread

38:                                               ; preds = %36
  %39 = getelementptr [11 x ptr], ptr @hf_req_array, i64 0, i64 %indvars.iv
  br label %44

40:                                               ; preds = %33
  %41 = icmp samesign ult i64 %indvars.iv, 9
  br i1 %41, label %42, label %.thread

42:                                               ; preds = %40
  %43 = getelementptr [9 x ptr], ptr @hf_resp_array, i64 0, i64 %indvars.iv
  br label %44

44:                                               ; preds = %42, %38
  %.str.1358.sink = phi ptr [ @.str.1358, %42 ], [ @.str.1357, %38 ]
  %.037.in = phi ptr [ %43, %42 ], [ %39, %38 ]
  %.2.in = phi ptr [ @ett_tds_capability_resp, %42 ], [ @ett_tds_capability_req, %38 ]
  %.037 = load ptr, ptr %.037.in, align 8
  %45 = shl nuw nsw i32 %indvars14, 3
  %46 = or disjoint i32 %45, 7
  %indvars.iv.tr = trunc nuw i64 %indvars.iv to i32
  %47 = shl nuw nsw i32 %indvars.iv.tr, 3
  %48 = call i32 (ptr, i64, i32, i64, ptr, ...) @__snprintf_chk(ptr noundef nonnull %8, i64 noundef 240, i32 noundef 2, i64 noundef 240, ptr noundef nonnull %.str.1358.sink, i32 noundef %47, i32 noundef %46)
  %.not = icmp eq ptr %.037, null
  %.pre15 = load i32, ptr %7, align 4
  br i1 %.not, label %.thread, label %49

49:                                               ; preds = %44
  %.2 = load i32, ptr %.2.in, align 4
  %50 = xor i32 %indvars14, -1
  %51 = add i32 %32, %50
  %52 = add i32 %51, %.pre15
  %53 = call ptr @proto_tree_add_bitmask_text(ptr noundef %3, ptr noundef nonnull %0, i32 noundef %52, i32 noundef 1, ptr noundef nonnull %8, ptr noundef null, i32 noundef %.2, ptr noundef nonnull %.037, i32 noundef 0, i32 noundef 10)
  %.pre = load i32, ptr %7, align 4
  br label %.thread

.thread:                                          ; preds = %36, %40, %33, %49, %44
  %54 = phi i32 [ %34, %36 ], [ %34, %40 ], [ %34, %33 ], [ %.pre, %49 ], [ %.pre15, %44 ]
  call void @llvm.lifetime.end.p0(i64 240, ptr nonnull %8) #13
  %indvars.iv.next = add nuw nsw i64 %indvars.iv, 1
  %55 = zext i32 %54 to i64
  %56 = icmp samesign ult i64 %indvars.iv.next, %55
  br i1 %56, label %33, label %._crit_edge.loopexit, !llvm.loop !39

._crit_edge.loopexit:                             ; preds = %.thread
  %.pre16 = load i32, ptr %5, align 4
  br label %._crit_edge

._crit_edge:                                      ; preds = %._crit_edge.loopexit, %29
  %57 = phi i32 [ %30, %29 ], [ %.pre16, %._crit_edge.loopexit ]
  %.lcssa = phi i32 [ 0, %29 ], [ %54, %._crit_edge.loopexit ]
  %58 = add i32 %.lcssa, %20
  call void @llvm.lifetime.end.p0(i64 4, ptr nonnull %7) #13
  call void @llvm.lifetime.end.p0(i64 4, ptr nonnull %6) #13
  %59 = icmp ult i32 %58, %57
  br i1 %59, label %.lr.ph8, label %._crit_edge9, !llvm.loop !40

._crit_edge9:                                     ; preds = %._crit_edge, %4
  %.038.lcssa = phi i32 [ 2, %4 ], [ %58, %._crit_edge ]
  call void @llvm.lifetime.end.p0(i64 4, ptr nonnull %5) #13
  ret i32 %.038.lcssa
}